ARM GAS  C:\Users\zinch\AppData\Local\Temp\cc5sZmeT.s 			page 1


   1              		.syntax unified
   2              		.cpu cortex-m0
   3              		.fpu softvfp
   4              		.eabi_attribute 20, 1
   5              		.eabi_attribute 21, 1
   6              		.eabi_attribute 23, 3
   7              		.eabi_attribute 24, 1
   8              		.eabi_attribute 25, 1
   9              		.eabi_attribute 26, 1
  10              		.eabi_attribute 30, 1
  11              		.eabi_attribute 34, 0
  12              		.eabi_attribute 18, 4
  13              		.thumb
  14              		.syntax unified
  15              		.file	"main.c"
  16              		.text
  17              	.Ltext0:
  18              		.cfi_sections	.debug_frame
  19              		.global	__aeabi_i2f
  20              		.global	__aeabi_f2d
  21              		.section	.text.main,"ax",%progbits
  22              		.align	2
  23              		.global	main
  24              		.code	16
  25              		.thumb_func
  26              		.type	main, %function
  27              	main:
  28              	.LFB36:
  29              		.file 1 "main.c"
   1:main.c        **** /* ========================================
   2:main.c        ****  *
   3:main.c        ****  * Copyright YOUR COMPANY, THE YEAR
   4:main.c        ****  * All Rights Reserved
   5:main.c        ****  * UNPUBLISHED, LICENSED SOFTWARE.
   6:main.c        ****  *
   7:main.c        ****  * CONFIDENTIAL AND PROPRIETARY INFORMATION
   8:main.c        ****  * WHICH IS THE PROPERTY OF your company.
   9:main.c        ****  *
  10:main.c        ****  * ========================================
  11:main.c        **** */
  12:main.c        **** #include "project.h"
  13:main.c        **** #include "stdio.h"
  14:main.c        **** float x = 0;
  15:main.c        **** 
  16:main.c        **** int main(void)
  17:main.c        **** {
  30              		.loc 1 17 0
  31              		.cfi_startproc
  32              		@ args = 0, pretend = 0, frame = 24
  33              		@ frame_needed = 0, uses_anonymous_args = 0
  34 0000 30B5     		push	{r4, r5, lr}
  35              		.cfi_def_cfa_offset 12
  36              		.cfi_offset 4, -12
  37              		.cfi_offset 5, -8
  38              		.cfi_offset 14, -4
  39 0002 87B0     		sub	sp, sp, #28
  40              		.cfi_def_cfa_offset 40
ARM GAS  C:\Users\zinch\AppData\Local\Temp\cc5sZmeT.s 			page 2


  18:main.c        ****     uint16 sliderval;
  19:main.c        ****     uint16 oldsliderval;
  20:main.c        ****     
  21:main.c        ****     CyGlobalIntEnable; /* Enable global interrupts. */
  41              		.loc 1 21 0
  42              		.syntax divided
  43              	@ 21 "main.c" 1
  44 0004 62B6     		CPSIE   i
  45              	@ 0 "" 2
  22:main.c        ****     
  23:main.c        ****     UART_Start();
  46              		.loc 1 23 0
  47              		.thumb
  48              		.syntax unified
  49 0006 FFF7FEFF 		bl	UART_Start
  50              	.LVL0:
  24:main.c        ****     CapSense_Start();
  51              		.loc 1 24 0
  52 000a FFF7FEFF 		bl	CapSense_Start
  53              	.LVL1:
  25:main.c        ****     CapSense_InitializeAllBaselines();
  54              		.loc 1 25 0
  55 000e FFF7FEFF 		bl	CapSense_InitializeAllBaselines
  56              	.LVL2:
  26:main.c        ****     CapSense_ScanEnabledWidgets();
  57              		.loc 1 26 0
  58 0012 FFF7FEFF 		bl	CapSense_ScanEnabledWidgets
  59              	.LVL3:
  27:main.c        ****     ADC_Start();
  60              		.loc 1 27 0
  61 0016 FFF7FEFF 		bl	ADC_Start
  62              	.LVL4:
  63              	.L5:
  64              	.LBB2:
  28:main.c        ****     
  29:main.c        ****    
  30:main.c        ****     
  31:main.c        **** 
  32:main.c        ****     /* Place your initialization/startup code here (e.g. MyInst_Start()) */
  33:main.c        **** 
  34:main.c        ****     for(;;)
  35:main.c        ****     {
  36:main.c        ****         ADC_StartConvert(); 
  65              		.loc 1 36 0
  66 001a FFF7FEFF 		bl	ADC_StartConvert
  67              	.LVL5:
  37:main.c        ****         ADC_IsEndConversion(ADC_WAIT_FOR_RESULT);
  68              		.loc 1 37 0
  69 001e 0220     		movs	r0, #2
  70 0020 FFF7FEFF 		bl	ADC_IsEndConversion
  71              	.LVL6:
  38:main.c        ****         x = ADC_GetResult16(0);
  72              		.loc 1 38 0
  73 0024 0020     		movs	r0, #0
  74 0026 FFF7FEFF 		bl	ADC_GetResult16
  75              	.LVL7:
  76 002a 0400     		movs	r4, r0
ARM GAS  C:\Users\zinch\AppData\Local\Temp\cc5sZmeT.s 			page 3


  77 002c FFF7FEFF 		bl	__aeabi_i2f
  78              	.LVL8:
  79 0030 1D4B     		ldr	r3, .L7
  80 0032 1860     		str	r0, [r3]
  39:main.c        ****         float32 y = ADC_CountsTo_mVolts(0, x);
  81              		.loc 1 39 0
  82 0034 2100     		movs	r1, r4
  83 0036 0020     		movs	r0, #0
  84 0038 FFF7FEFF 		bl	ADC_CountsTo_mVolts
  85              	.LVL9:
  86 003c FFF7FEFF 		bl	__aeabi_i2f
  87              	.LVL10:
  40:main.c        ****         char8 text[20];
  41:main.c        ****         sprintf(text, "%f", y);
  88              		.loc 1 41 0
  89 0040 FFF7FEFF 		bl	__aeabi_f2d
  90              	.LVL11:
  91 0044 0200     		movs	r2, r0
  92 0046 0B00     		movs	r3, r1
  93 0048 1849     		ldr	r1, .L7+4
  94 004a 01A8     		add	r0, sp, #4
  95 004c FFF7FEFF 		bl	sprintf
  96              	.LVL12:
  42:main.c        ****         
  43:main.c        ****         
  44:main.c        ****         UART_UartPutString(text);
  97              		.loc 1 44 0
  98 0050 01A8     		add	r0, sp, #4
  99 0052 FFF7FEFF 		bl	UART_UartPutString
 100              	.LVL13:
  45:main.c        ****         UART_UartPutString("\033[1F");
 101              		.loc 1 45 0
 102 0056 1648     		ldr	r0, .L7+8
 103 0058 FFF7FEFF 		bl	UART_UartPutString
 104              	.LVL14:
  46:main.c        ****         
  47:main.c        ****         if(!CapSense_IsBusy()){
 105              		.loc 1 47 0
 106 005c FFF7FEFF 		bl	CapSense_IsBusy
 107              	.LVL15:
 108 0060 0028     		cmp	r0, #0
 109 0062 DAD1     		bne	.L5
  48:main.c        ****             sliderval = CapSense_GetCentroidPos(CapSense_LINEARSLIDER0__LS);
 110              		.loc 1 48 0
 111 0064 FFF7FEFF 		bl	CapSense_GetCentroidPos
 112              	.LVL16:
 113 0068 0400     		movs	r4, r0
 114              	.LVL17:
  49:main.c        ****             if(sliderval != 0xFFFF && sliderval != oldsliderval) {
 115              		.loc 1 49 0
 116 006a 124A     		ldr	r2, .L7+12
 117 006c 9042     		cmp	r0, r2
 118 006e 16D0     		beq	.L3
 119              		.loc 1 49 0 is_stmt 0 discriminator 1
 120 0070 8542     		cmp	r5, r0
 121 0072 14D0     		beq	.L3
  50:main.c        ****                 if (sliderval < 50) {
ARM GAS  C:\Users\zinch\AppData\Local\Temp\cc5sZmeT.s 			page 4


 122              		.loc 1 50 0 is_stmt 1
 123 0074 3128     		cmp	r0, #49
 124 0076 07D8     		bhi	.L4
  51:main.c        ****                     Green_Write(0u);
 125              		.loc 1 51 0
 126 0078 0020     		movs	r0, #0
 127              	.LVL18:
 128 007a FFF7FEFF 		bl	Green_Write
 129              	.LVL19:
  52:main.c        ****                     Red_Write(1u);
 130              		.loc 1 52 0
 131 007e 0120     		movs	r0, #1
 132 0080 FFF7FEFF 		bl	Red_Write
 133              	.LVL20:
  53:main.c        ****                 }
  54:main.c        ****                 else if (sliderval > 50) {
  55:main.c        ****                     Red_Write(0u);
  56:main.c        ****                     Green_Write(1u);
  57:main.c        ****                 }
  58:main.c        ****                 oldsliderval = sliderval;
 134              		.loc 1 58 0
 135 0084 2500     		movs	r5, r4
 136              	.LVL21:
 137 0086 0AE0     		b	.L3
 138              	.LVL22:
 139              	.L4:
  54:main.c        ****                     Red_Write(0u);
 140              		.loc 1 54 0
 141 0088 3228     		cmp	r0, #50
 142 008a 07D9     		bls	.L6
  55:main.c        ****                     Green_Write(1u);
 143              		.loc 1 55 0
 144 008c 0020     		movs	r0, #0
 145              	.LVL23:
 146 008e FFF7FEFF 		bl	Red_Write
 147              	.LVL24:
  56:main.c        ****                 }
 148              		.loc 1 56 0
 149 0092 0120     		movs	r0, #1
 150 0094 FFF7FEFF 		bl	Green_Write
 151              	.LVL25:
 152              		.loc 1 58 0
 153 0098 2500     		movs	r5, r4
 154              	.LVL26:
 155 009a 00E0     		b	.L3
 156              	.LVL27:
 157              	.L6:
 158 009c 0500     		movs	r5, r0
 159              	.LVL28:
 160              	.L3:
  59:main.c        ****             }
  60:main.c        ****             
  61:main.c        ****             CapSense_UpdateEnabledBaselines();
 161              		.loc 1 61 0
 162 009e FFF7FEFF 		bl	CapSense_UpdateEnabledBaselines
 163              	.LVL29:
  62:main.c        ****             CapSense_ScanEnabledWidgets();
ARM GAS  C:\Users\zinch\AppData\Local\Temp\cc5sZmeT.s 			page 5


 164              		.loc 1 62 0
 165 00a2 FFF7FEFF 		bl	CapSense_ScanEnabledWidgets
 166              	.LVL30:
 167              	.LBE2:
  63:main.c        ****         }
  64:main.c        ****         /* Place your application code here. */
  65:main.c        ****     }
 168              		.loc 1 65 0
 169 00a6 B8E7     		b	.L5
 170              	.L8:
 171              		.align	2
 172              	.L7:
 173 00a8 00000000 		.word	.LANCHOR0
 174 00ac 00000000 		.word	.LC1
 175 00b0 04000000 		.word	.LC3
 176 00b4 FFFF0000 		.word	65535
 177              		.cfi_endproc
 178              	.LFE36:
 179              		.size	main, .-main
 180              		.global	x
 181              		.section	.rodata.str1.4,"aMS",%progbits,1
 182              		.align	2
 183              	.LC1:
 184 0000 256600   		.ascii	"%f\000"
 185 0003 00       		.space	1
 186              	.LC3:
 187 0004 1B5B3146 		.ascii	"\033[1F\000"
 187      00
 188              		.bss
 189              		.align	2
 190              		.set	.LANCHOR0,. + 0
 191              		.type	x, %object
 192              		.size	x, 4
 193              	x:
 194 0000 00000000 		.space	4
 195              		.text
 196              	.Letext0:
 197              		.file 2 "Generated_Source\\PSoC4/cytypes.h"
 198              		.file 3 "Generated_Source\\PSoC4/ADC.h"
 199              		.file 4 "c:\\program files (x86)\\cypress\\psoc creator\\4.4\\psoc creator\\import\\gnu\\arm\\5.4.
 200              		.file 5 "Generated_Source\\PSoC4/UART_SPI_UART.h"
 201              		.file 6 "Generated_Source\\PSoC4/CapSense.h"
 202              		.file 7 "Generated_Source\\PSoC4/CapSense_CSHL.h"
 203              		.file 8 "Generated_Source\\PSoC4/Green.h"
 204              		.file 9 "Generated_Source\\PSoC4/Red.h"
 205              		.file 10 "Generated_Source\\PSoC4/UART.h"